target datalayout = "e-m:e-p270:32:32-p271:32:32-p272:64:64-i64:64-i128:128-f80:128-n8:16:32:64-S128"
target triple = "x86_64-pc-linux-gnu"

@VP8kclip1 = external constant ptr, align 8

; Function Attrs: inlinehint nounwind uwtable
define internal void @TrueMotion(ptr noundef %0, i32 noundef %1) #4 {
  %3 = alloca ptr, align 8
  %4 = alloca i32, align 4
  %5 = alloca ptr, align 8
  %6 = alloca ptr, align 8
  %7 = alloca i32, align 4
  %8 = alloca ptr, align 8
  %9 = alloca i32, align 4
  store ptr %0, ptr %3, align 8, !tbaa !16
  store i32 %1, ptr %4, align 4, !tbaa !9
  call void @llvm.lifetime.start.p0(i64 8, ptr %5) #7
  %10 = load ptr, ptr %3, align 8, !tbaa !16
  %11 = getelementptr inbounds i8, ptr %10, i64 -32
  store ptr %11, ptr %5, align 8, !tbaa !16
  call void @llvm.lifetime.start.p0(i64 8, ptr %6) #7
  %12 = load ptr, ptr @VP8kclip1, align 8, !tbaa !16
  %13 = load ptr, ptr %5, align 8, !tbaa !16
  %14 = getelementptr inbounds i8, ptr %13, i64 -1
  %15 = load i8, ptr %14, align 1, !tbaa !18
  %16 = zext i8 %15 to i32
  %17 = sext i32 %16 to i64
  %18 = sub i64 0, %17
  %19 = getelementptr inbounds i8, ptr %12, i64 %18
  store ptr %19, ptr %6, align 8, !tbaa !16
  call void @llvm.lifetime.start.p0(i64 4, ptr %7) #7
  store i32 0, ptr %7, align 4, !tbaa !9
  br label %20

20:                                               ; preds = %56, %2
  %21 = load i32, ptr %7, align 4, !tbaa !9
  %22 = load i32, ptr %4, align 4, !tbaa !9
  %23 = icmp slt i32 %21, %22
  br i1 %23, label %24, label %59

24:                                               ; preds = %20
  call void @llvm.lifetime.start.p0(i64 8, ptr %8) #7
  %25 = load ptr, ptr %6, align 8, !tbaa !16
  %26 = load ptr, ptr %3, align 8, !tbaa !16
  %27 = getelementptr inbounds i8, ptr %26, i64 -1
  %28 = load i8, ptr %27, align 1, !tbaa !18
  %29 = zext i8 %28 to i32
  %30 = sext i32 %29 to i64
  %31 = getelementptr inbounds i8, ptr %25, i64 %30
  store ptr %31, ptr %8, align 8, !tbaa !16
  call void @llvm.lifetime.start.p0(i64 4, ptr %9) #7
  store i32 0, ptr %9, align 4, !tbaa !9
  br label %32

32:                                               ; preds = %50, %24
  %33 = load i32, ptr %9, align 4, !tbaa !9
  %34 = load i32, ptr %4, align 4, !tbaa !9
  %35 = icmp slt i32 %33, %34
  br i1 %35, label %36, label %53

36:                                               ; preds = %32
  %37 = load ptr, ptr %8, align 8, !tbaa !16
  %38 = load ptr, ptr %5, align 8, !tbaa !16
  %39 = load i32, ptr %9, align 4, !tbaa !9
  %40 = sext i32 %39 to i64
  %41 = getelementptr inbounds i8, ptr %38, i64 %40
  %42 = load i8, ptr %41, align 1, !tbaa !18
  %43 = zext i8 %42 to i64
  %44 = getelementptr inbounds nuw i8, ptr %37, i64 %43
  %45 = load i8, ptr %44, align 1, !tbaa !18
  %46 = load ptr, ptr %3, align 8, !tbaa !16
  %47 = load i32, ptr %9, align 4, !tbaa !9
  %48 = sext i32 %47 to i64
  %49 = getelementptr inbounds i8, ptr %46, i64 %48
  store i8 %45, ptr %49, align 1, !tbaa !18
  br label %50

50:                                               ; preds = %36
  %51 = load i32, ptr %9, align 4, !tbaa !9
  %52 = add nsw i32 %51, 1
  store i32 %52, ptr %9, align 4, !tbaa !9
  br label %32, !llvm.loop !48

53:                                               ; preds = %32
  %54 = load ptr, ptr %3, align 8, !tbaa !16
  %55 = getelementptr inbounds i8, ptr %54, i64 32
  store ptr %55, ptr %3, align 8, !tbaa !16
  call void @llvm.lifetime.end.p0(i64 4, ptr %9) #7
  call void @llvm.lifetime.end.p0(i64 8, ptr %8) #7
  br label %56

56:                                               ; preds = %53
  %57 = load i32, ptr %7, align 4, !tbaa !9
  %58 = add nsw i32 %57, 1
  store i32 %58, ptr %7, align 4, !tbaa !9
  br label %20, !llvm.loop !49

59:                                               ; preds = %20
  call void @llvm.lifetime.end.p0(i64 4, ptr %7) #7
  call void @llvm.lifetime.end.p0(i64 8, ptr %6) #7
  call void @llvm.lifetime.end.p0(i64 8, ptr %5) #7
  ret void
}

; Function Attrs: nounwind uwtable
define internal void @TM16_C(ptr noundef %0) #0 {
  %2 = alloca ptr, align 8
  store ptr %0, ptr %2, align 8, !tbaa !16
  %3 = load ptr, ptr %2, align 8, !tbaa !16
  call void @TrueMotion(ptr noundef %3, i32 noundef 16)
  ret void
}